target datalayout = "e-m:e-p270:32:32-p271:32:32-p272:64:64-i64:64-i128:128-f80:128-n8:16:32:64-S128"
target triple = "x86_64-pc-linux-gnu"

%"class.std::shared_ptr" = type { %"class.std::__shared_ptr" }
%"class.std::__shared_ptr" = type { ptr, %"class.std::__shared_count" }
%"class.std::__shared_count" = type { ptr }
%"class.open_spiel::oshi_zumo::OshiZumoState" = type { %"class.open_spiel::SimMoveState.base", ptr, i32, i32, i32, i32, i32, i8, i32, i32, %"struct.std::array" }
%"class.open_spiel::SimMoveState.base" = type { %"class.open_spiel::State.base" }
%"class.open_spiel::State.base" = type <{ ptr, %"class.std::shared_ptr", i32, i32, %"class.std::vector", i32 }>
%"class.std::vector" = type { %"struct.std::_Vector_base" }
%"struct.std::_Vector_base" = type { %"struct.std::_Vector_base<open_spiel::State::PlayerAction, std::allocator<open_spiel::State::PlayerAction>>::_Vector_impl" }
%"struct.std::_Vector_base<open_spiel::State::PlayerAction, std::allocator<open_spiel::State::PlayerAction>>::_Vector_impl" = type { %"struct.std::_Vector_base<open_spiel::State::PlayerAction, std::allocator<open_spiel::State::PlayerAction>>::_Vector_impl_data" }
%"struct.std::_Vector_base<open_spiel::State::PlayerAction, std::allocator<open_spiel::State::PlayerAction>>::_Vector_impl_data" = type { ptr, ptr, ptr }
%"struct.std::array" = type { [2 x i32] }

; Function Attrs: mustprogress nounwind uwtable
define linkonce_odr noundef nonnull align 4 dereferenceable(4) ptr @_ZNSt14__array_traitsIiLm2EE6_S_refERA2_Kim(ptr noundef nonnull align 4 dereferenceable(8) %0, i64 noundef %1) #5 comdat align 2 {
  %3 = alloca ptr, align 8
  %4 = alloca i64, align 8
  store ptr %0, ptr %3, align 8
  store i64 %1, ptr %4, align 8
  %5 = load ptr, ptr %3, align 8
  %6 = load i64, ptr %4, align 8
  %7 = getelementptr inbounds [2 x i32], ptr %5, i64 0, i64 %6
  ret ptr %7
}

; Function Attrs: mustprogress nounwind uwtable
define linkonce_odr noundef nonnull align 4 dereferenceable(4) ptr @_ZNKSt5arrayIiLm2EEixEm(ptr noundef nonnull align 4 dereferenceable(8) %0, i64 noundef %1) #5 comdat align 2 {
  %3 = alloca ptr, align 8
  %4 = alloca i64, align 8
  store ptr %0, ptr %3, align 8
  store i64 %1, ptr %4, align 8
  %5 = load ptr, ptr %3, align 8
  %6 = getelementptr inbounds nuw %"struct.std::array", ptr %5, i32 0, i32 0
  %7 = load i64, ptr %4, align 8
  %8 = call noundef nonnull align 4 dereferenceable(4) ptr @_ZNSt14__array_traitsIiLm2EE6_S_refERA2_Kim(ptr noundef nonnull align 4 dereferenceable(8) %6, i64 noundef %7) #3
  ret ptr %8
}

; Function Attrs: mustprogress nounwind uwtable
define noundef zeroext i1 @_ZNK10open_spiel9oshi_zumo13OshiZumoState10IsTerminalEv(ptr noundef nonnull align 8 dereferenceable(112) %0) unnamed_addr #5 align 2 {
  %2 = alloca ptr, align 8
  store ptr %0, ptr %2, align 8
  %3 = load ptr, ptr %2, align 8
  %4 = getelementptr inbounds nuw %"class.open_spiel::oshi_zumo::OshiZumoState", ptr %3, i32 0, i32 3
  %5 = load i32, ptr %4, align 4
  %6 = getelementptr inbounds nuw %"class.open_spiel::oshi_zumo::OshiZumoState", ptr %3, i32 0, i32 4
  %7 = load i32, ptr %6, align 8
  %8 = icmp sge i32 %5, %7
  br i1 %8, label %25, label %9

9:                                                ; preds = %1
  %10 = getelementptr inbounds nuw %"class.open_spiel::oshi_zumo::OshiZumoState", ptr %3, i32 0, i32 2
  %11 = load i32, ptr %10, align 8
  %12 = icmp ne i32 %11, -1
  br i1 %12, label %25, label %13

13:                                               ; preds = %9
  %14 = getelementptr inbounds nuw %"class.open_spiel::oshi_zumo::OshiZumoState", ptr %3, i32 0, i32 10
  %15 = call noundef nonnull align 4 dereferenceable(4) ptr @_ZNKSt5arrayIiLm2EEixEm(ptr noundef nonnull align 4 dereferenceable(8) %14, i64 noundef 0) #3
  %16 = load i32, ptr %15, align 4
  %17 = icmp eq i32 %16, 0
  br i1 %17, label %18, label %23

18:                                               ; preds = %13
  %19 = getelementptr inbounds nuw %"class.open_spiel::oshi_zumo::OshiZumoState", ptr %3, i32 0, i32 10
  %20 = call noundef nonnull align 4 dereferenceable(4) ptr @_ZNKSt5arrayIiLm2EEixEm(ptr noundef nonnull align 4 dereferenceable(8) %19, i64 noundef 1) #3
  %21 = load i32, ptr %20, align 4
  %22 = icmp eq i32 %21, 0
  br label %23

23:                                               ; preds = %18, %13
  %24 = phi i1 [ false, %13 ], [ %22, %18 ]
  br label %25

25:                                               ; preds = %23, %9, %1
  %26 = phi i1 [ true, %9 ], [ true, %1 ], [ %24, %23 ]
  ret i1 %26
}