; Function Attrs: mustprogress nofree norecurse nosync nounwind willreturn memory(argmem: read) uwtable
define noundef zeroext i1 @_ZNK10open_spiel9oshi_zumo13OshiZumoState10IsTerminalEv(ptr noundef nonnull readonly align 8 captures(none) dereferenceable(112) %0) unnamed_addr #7 align 2 {
  %2 = getelementptr inbounds nuw i8, ptr %0, i64 76
  %3 = load i32, ptr %2, align 4
  %4 = getelementptr inbounds nuw i8, ptr %0, i64 80
  %5 = load i32, ptr %4, align 8
  %.not = icmp slt i32 %3, %5
  %6 = getelementptr inbounds nuw i8, ptr %0, i64 72
  %7 = load i32, ptr %6, align 8
  %.not1 = icmp eq i32 %7, -1
  %or.cond = select i1 %.not, i1 %.not1, i1 false
  br i1 %or.cond, label %8, label %16

8:                                                ; preds = %1
  %9 = getelementptr inbounds nuw i8, ptr %0, i64 104
  %10 = load i32, ptr %9, align 8
  %11 = icmp eq i32 %10, 0
  br i1 %11, label %12, label %16

12:                                               ; preds = %8
  %13 = getelementptr inbounds nuw i8, ptr %0, i64 108
  %14 = load i32, ptr %13, align 4
  %15 = icmp eq i32 %14, 0
  br label %16

16:                                               ; preds = %8, %12, %1
  %17 = phi i1 [ true, %1 ], [ false, %8 ], [ %15, %12 ]
  ret i1 %17
}